; Function Attrs: mustprogress uwtable
define void @_Z18grpc_error_set_intN4absl12lts_202407226StatusEN9grpc_core17StatusIntPropertyEl(ptr dead_on_unwind noalias writable writeonly sret(%"class.absl::lts_20240722::Status") align 8 captures(none) %0, ptr noundef %1, i32 noundef %2, i64 noundef %3) local_unnamed_addr #3 personality ptr @__gxx_personality_v0 {
  %5 = alloca %"class.absl::lts_20240722::Status", align 8
  %6 = load i64, ptr %1, align 8, !tbaa !10
  %7 = icmp eq i64 %6, 1
  br i1 %7, label %8, label %25

8:                                                ; preds = %4
  call void @llvm.lifetime.start.p0(i64 8, ptr nonnull %5) #22
  call void @_ZN4absl12lts_2024072212UnknownErrorESt17basic_string_viewIcSt11char_traitsIcEE(ptr dead_on_unwind nonnull writable sret(%"class.absl::lts_20240722::Status") align 8 %5, i64 0, ptr nonnull @.str.3)
  %9 = load i64, ptr %1, align 8, !tbaa !10
  %10 = load i64, ptr %5, align 8, !tbaa !10
  %.not.i = icmp eq i64 %10, %9
  br i1 %.not.i, label %_ZN4absl12lts_202407226StatusaSEOS1_.exit, label %11

11:                                               ; preds = %8
  store i64 %10, ptr %1, align 8, !tbaa !10
  store i64 55, ptr %5, align 8, !tbaa !10
  %12 = and i64 %9, 1
  %.not.i.i = icmp eq i64 %12, 0
  br i1 %.not.i.i, label %13, label %_ZN4absl12lts_202407226StatusD2Ev.exit

13:                                               ; preds = %11
  %14 = inttoptr i64 %9 to ptr
  invoke void @_ZNK4absl12lts_2024072215status_internal9StatusRep5UnrefEv(ptr noundef nonnull align 8 dereferenceable(48) %14)
          to label %._ZN4absl12lts_202407226StatusaSEOS1_.exit_crit_edge unwind label %15

._ZN4absl12lts_202407226StatusaSEOS1_.exit_crit_edge: ; preds = %13
  %.pre = load i64, ptr %5, align 8, !tbaa !10
  br label %_ZN4absl12lts_202407226StatusaSEOS1_.exit

15:                                               ; preds = %13
  %16 = landingpad { ptr, i32 }
          catch ptr null
  %17 = extractvalue { ptr, i32 } %16, 0
  call void @__clang_call_terminate(ptr %17) #20
  unreachable

_ZN4absl12lts_202407226StatusaSEOS1_.exit:        ; preds = %._ZN4absl12lts_202407226StatusaSEOS1_.exit_crit_edge, %8
  %18 = phi i64 [ %.pre, %._ZN4absl12lts_202407226StatusaSEOS1_.exit_crit_edge ], [ %9, %8 ]
  %19 = and i64 %18, 1
  %.not.i.i2 = icmp eq i64 %19, 0
  br i1 %.not.i.i2, label %20, label %_ZN4absl12lts_202407226StatusD2Ev.exit

20:                                               ; preds = %_ZN4absl12lts_202407226StatusaSEOS1_.exit
  %21 = inttoptr i64 %18 to ptr
  invoke void @_ZNK4absl12lts_2024072215status_internal9StatusRep5UnrefEv(ptr noundef nonnull align 8 dereferenceable(48) %21)
          to label %_ZN4absl12lts_202407226StatusD2Ev.exit unwind label %22

22:                                               ; preds = %20
  %23 = landingpad { ptr, i32 }
          catch ptr null
  %24 = extractvalue { ptr, i32 } %23, 0
  call void @__clang_call_terminate(ptr %24) #20
  unreachable

_ZN4absl12lts_202407226StatusD2Ev.exit:           ; preds = %11, %_ZN4absl12lts_202407226StatusaSEOS1_.exit, %20
  call void @llvm.lifetime.end.p0(i64 8, ptr nonnull %5) #22
  call void @_ZN9grpc_core12StatusSetIntEPN4absl12lts_202407226StatusENS_17StatusIntPropertyEl(ptr noundef nonnull %1, i32 noundef 2, i64 noundef 0)
  br label %25

25:                                               ; preds = %_ZN4absl12lts_202407226StatusD2Ev.exit, %4
  call void @_ZN9grpc_core12StatusSetIntEPN4absl12lts_202407226StatusENS_17StatusIntPropertyEl(ptr noundef nonnull %1, i32 noundef %2, i64 noundef %3)
  %26 = load i64, ptr %1, align 8, !tbaa !10
  store i64 %26, ptr %0, align 8, !tbaa !10
  store i64 55, ptr %1, align 8, !tbaa !10
  ret void
}